; Function Attrs: mustprogress uwtable
define noundef nonnull align 8 dereferenceable(16) ptr @_ZN7Imf_3_46Header12previewImageEv(ptr noundef nonnull align 8 dereferenceable(49) %0) local_unnamed_addr #5 align 2 personality ptr @__gxx_personality_v0 {
  %2 = tail call noundef nonnull align 8 dereferenceable(8) ptr @_ZN7Imf_3_46HeaderixEPKc(ptr noundef nonnull align 8 dereferenceable(49) %0, ptr noundef nonnull @.str.36)
  %3 = tail call ptr @__dynamic_cast(ptr nonnull %2, ptr nonnull @_ZTIN7Imf_3_49AttributeE, ptr nonnull @_ZTIN7Imf_3_414TypedAttributeINS_12PreviewImageEEE, i64 0) #29
  %4 = icmp eq ptr %3, null
  br i1 %4, label %5, label %_ZN7Imf_3_46Header14typedAttributeINS_14TypedAttributeINS_12PreviewImageEEEEERT_PKc.exit

5:                                                ; preds = %1
  %6 = tail call ptr @__cxa_allocate_exception(i64 72) #29
  invoke void @_ZN7Iex_3_47TypeExcC1EPKc(ptr noundef nonnull align 8 dereferenceable(72) %6, ptr noundef nonnull @.str.76)
          to label %7 unwind label %8

7:                                                ; preds = %5
  tail call void @__cxa_throw(ptr nonnull %6, ptr nonnull @_ZTIN7Iex_3_47TypeExcE, ptr nonnull @_ZN7Iex_3_47TypeExcD1Ev) #30
  unreachable

8:                                                ; preds = %5
  %9 = landingpad { ptr, i32 }
          cleanup
  tail call void @__cxa_free_exception(ptr nonnull %6) #29
  resume { ptr, i32 } %9

_ZN7Imf_3_46Header14typedAttributeINS_14TypedAttributeINS_12PreviewImageEEEEERT_PKc.exit: ; preds = %1
  %10 = getelementptr inbounds nuw i8, ptr %3, i64 8
  ret ptr %10
}